(dp1
S'output'
p2
S"<type 'exceptions.AttributeError'> 'translator' object has no attribute 'request'"
p3
sS'layer'
p4
S'/home/nyeinchan/web2py/applications/outletsurvey/views/default/index.html'
p5
sS'code'
p6
S'response.write(\'<!DOCTYPE html>\\n<html class="no-js" lang="\', escape=False)\nresponse.write(T.accepted_language or \'en\')\nresponse.write(\'">\\n    <head>\\n        <meta charset="utf-8">\\n        <meta http-equiv="X-UA-Compatible" content="IE=edge\', escape=False)\nresponse.write(not request.is_local and \',chrome=1\' or \'\')\nresponse.write(\'">\\n        <meta name="viewport" content="width=device-width, initial-scale=1.0">\\n\\n        <meta name="description" content="A front-end template that helps you build fast, modern mobile web apps.">\\n        <title>\', escape=False)\nresponse.write(T(response.title or request.application))\nresponse.write(\'</title>\\n        <meta name="application-name" content="\', escape=False)\nresponse.write(request.application)\nresponse.write(\'">\\n        <meta name="google-site-verification" content="">\\n        <meta name="mobile-web-app-capable" content="yes">\\n        <link rel="icon" sizes="192x192" href="\', escape=False)\nresponse.write(URL(\'static\',\'images/android-desktop.png\'))\nresponse.write(\'">\\n\\n        <!-- Add to homescreen for Safari on iOS -->\\n        <meta name="apple-mobile-web-app-capable" content="yes">\\n        <meta name="apple-mobile-web-app-status-bar-style" content="black">\\n        <meta name="apple-mobile-web-app-title" content="Material Design Lite">\\n        <link rel="apple-touch-icon-precomposed" href="\', escape=False)\nresponse.write(URL(\'static\',\'images/ios-desktop.png\'))\nresponse.write(\'">\\n<!-- include stylesheets -->\\n        <link rel="stylesheet" href="\', escape=False)\nresponse.write(URL(\'static\',\'css/bootstrap.min.css\'))\nresponse.write(\'"/>\\n        <link rel="stylesheet" href="\', escape=False)\nresponse.write(URL(\'static\',\'css/web2py-bootstrap3.css\'))\nresponse.write(\'"/>\\n        <link rel="stylesheet" href="\', escape=False)\nresponse.write(URL(\'static\', \'css/custom.css\'))\nresponse.write(\'"/>\\n        <link rel="stylesheet" href="\', escape=False)\nresponse.write(URL(\'static\', \'css/mdl-style.css\'))\nresponse.write(\'"/>\\n        <link rel="stylesheet" href="\', escape=False)\nresponse.write(URL(\'static\', \'css/style.css\'))\nresponse.write(\'"/>\\n        <link rel="stylesheet" href="\', escape=False)\nresponse.write(URL(\'static\', \'css/myansanspro.css\'))\nresponse.write(\'"/>\\n        <link rel="stylesheet" href="\', escape=False)\nresponse.write(URL(\'static\', \'css/material.min.css\'))\nresponse.write(\'"/>\\n        <link rel="stylesheet" href="\', escape=False)\nresponse.write(URL(\'static\', \'css/material.css\'))\nresponse.write(\'"/>\\n        <link rel="stylesheet" href="\', escape=False)\nresponse.write(URL(\'static\', \'css/angular-material.css\'))\nresponse.write(\'"/>\\n        <link rel="stylesheet" href="\', escape=False)\nresponse.write(URL(\'static\', \'css/materialicons.css\'))\nresponse.write(\'"/>\\n        <link rel="shortcut icon" href="\', escape=False)\nresponse.write(URL(\'static\',\'images/favicon.ico\'))\nresponse.write(\'" type="image/x-icon"/>\\n        <link rel="apple-touch-icon" href="\', escape=False)\nresponse.write(URL(\'static\',\'images/favicon.png\'))\nresponse.write(\'"/>\\n\\n        <script src="\', escape=False)\nresponse.write(URL(\'static\',\'js/modernizr-2.8.3.min.js\'))\nresponse.write(\'"></script>\\n            \', escape=False)\nresponse.write(\'<script type="text/javascript"><!--\\n    // These variables are used by the web2py_ajax_init function in web2py_ajax.js (which is loaded below).\\n    var w2p_ajax_confirm_message = "\', escape=False)\nresponse.write(T(\'Are you sure you want to delete this object?\'))\nresponse.write(\'";\\n    var w2p_ajax_disable_with_message = "\', escape=False)\nresponse.write(T(\'Working...\'))\nresponse.write(\'";\\n    var w2p_ajax_date_format = "\', escape=False)\nresponse.write(T(\'%Y-%m-%d\'))\nresponse.write(\'";\\n    var w2p_ajax_datetime_format = "\', escape=False)\nresponse.write(T(\'%Y-%m-%d %H:%M:%S\'))\nresponse.write(\'";\\n    var ajax_error_500 = \\\'\', escape=False)\nresponse.write(T.M(\'An error occured, please [[reload %s]] the page\') % URL(args=request.args, vars=request.get_vars))\nresponse.write("\'\\n    //--></script>\\n", escape=False)\nresponse.files.insert(0,URL(\'static\',\'js/jquery.js\'))\nresponse.files.insert(1,URL(\'static\',\'css/calendar.css\'))\nresponse.files.insert(2,URL(\'static\',\'js/calendar.js\'))\nresponse.files.insert(3,URL(\'static\',\'js/web2py.js\'))\nresponse.include_meta()\nresponse.include_files()\nresponse.write(\'\\n\', escape=False)\nresponse.write(\'\\n    </head>\\n    <body ng-app="MyApp" layout="column" ng-cloak="" class="body-color">\\n<!-- Always shows a header, even in smaller screens. -->\\n\\n<!-- Masthead ===================================== -->\\n        \', escape=False)\nresponse.write(\'\\n        <md-content flex layout="column" layout-fill ng-controller="AppCtrl">\\n            <md-toolbar class="md-toolbar-tools md-whiteframe-4dp " layout="row" style="background-color:#F44336;">\\n                <md-button class="md-icon-button" ng-show="true" aria-label="menu" ng-click="toggleLeft()">\\n                  <md-icon md-svg-icon="\', escape=False)\nresponse.write(URL(\'static\', \'images/icons/menu_white_24px.svg\'))\nresponse.write(\'"></md-icon>\\n                </md-button>\\n                <label class="md-title" layout-padding>\', escape=False)\nresponse.write(T(response.title or request.application))\nresponse.write(\'</label>\\n                <span flex>&nbsp;</span>\\n                <div layout="row" layout-align="center center">\\n                    <div class="collapse navbar-collapse navbar-ex1-collapse">\\n                        <ul class="nav navbar-nav navbar-right">\\n                            \', escape=False)\nresponse.write(auth.navbar(mode=\'dropdown\') or \'\')\nresponse.write(\'\\n                        </ul>\\n                        \', escape=False)\nif response.menu:\n    response.write(\'\\n                            \', escape=False)\n    response.write(MENU(response.menu, _class=\'nav navbar-nav\',li_class=\'dropdown\',ul_class=\'dropdown-menu\'))\n    response.write(\'\\n                        \', escape=False)\n    pass\nresponse.write(\'\\n                    </div>\\n                    \', escape=False)\nif hasattr(T,\'get_possible_languages_info\'):\n    response.write(\'\\n                    <md-input-container class="" style="background-color:#F44336;" >\\n                        <select name="adminlanguage" onchange="var date = new       Date();cookieDate=date.setTime(date.getTime()+(100*24*60*60*1000));document.cookie=\\\'adminLanguage=\\\'+this.options[this.selectedIndex].id+\\\'; expires=\\\'+cookieDate+\\\'; path=/\\\'; window.location.pathname=\', escape=False)\n    response.write(T.request.application)\n    response.write(\' +\\\'/\\\'+ this.options[this.selectedIndex].value;"\\n                        class="btn btn-default">\\n                            \', escape=False)\n    for langinfo in sorted([(code,info[1]) for code,info in T.get_possible_languages_info().iteritems() if (code != \'default\') and (code in [\'my-mm\', \'en-us\'])   ]):\n        response.write(\'\\n                                <option \', escape=False)\n        response.write(T.accepted_language==langinfo[0] and \'selected\' or \'\')\n        response.write(\' \', escape=False)\n        response.write(\'id=\'+langinfo[0])\n        response.write(\' \', escape=False)\n        response.write(\'value=\'+langinfo[0])\n        response.write(\' >\', escape=False)\n        response.write(langinfo[1])\n        response.write(\'</option>\\n                            \', escape=False)\n        pass\n    response.write(\'\\n                        </select>\\n                    </md-input-container>\\n                    \', escape=False)\n    pass\nresponse.write(\'\\n                </div>\\n              </md-toolbar>\\n        \', escape=False)\nresponse.write(\'\\n        \', escape=False)\nresponse.write(\'\\n        <md-content flex layout="row"  class="content-color">\\n            <md-sidenav flex="20" class="md-sidenav-left md-whiteframe-z2"\\n                md-component-id="left">\\n                <md-content flex layout="column" class="content-color">\\n                    <md-list>\\n                        <md-list-item  class="md-actions content-color" ng-href="\', escape=False)\nresponse.write(URL(\'default\', \'index\'))\nresponse.write(\'">\\n                            <md-icon md-svg-icon="\', escape=False)\nresponse.write(URL(\'static\', \'images/icons/bottle_white_24px.svg\'))\nresponse.write(\'"></md-icon>\\n                            <p>\', escape=False)\nresponse.write(T("Home"))\nresponse.write(\'</p>\\n                        </md-list-item>\\n                        <md-list-item  class="md-actions content-color" ng-href="\', escape=False)\nresponse.write(URL(\'default\', \'getGPS\'))\nresponse.write(\'">\\n                            <md-icon md-svg-icon="\', escape=False)\nresponse.write(URL(\'static\', \'images/icons/bottle_white_24px.svg\'))\nresponse.write(\'"></md-icon>\\n                            <p>\', escape=False)\nresponse.write(T("Location"))\nresponse.write(\'</p>\\n                        </md-list-item>\\n                        <md-list-item   class="md-actions content-color" ng-href="\', escape=False)\nresponse.write(URL(\'default\', \'survey\'))\nresponse.write(\'">\\n                            <md-icon md-svg-icon="\', escape=False)\nresponse.write(URL(\'static\', \'images/icons/bottle_white_24px.svg\'))\nresponse.write(\'"></md-icon>\\n                            <p>\', escape=False)\nresponse.write(T("Survey"))\nresponse.write(\'</p>\\n                        </md-list-item>\\n                        <md-subheader class="md-no-sticky body-color">\', escape=False)\nresponse.write(T(\'Setting\'))\nresponse.write(\'</md-subheader>\\n                            <md-list-item  class="md-actions content-color" ng-href="\', escape=False)\nresponse.write(URL(\'default\', \'question\'))\nresponse.write(\'">\\n                                <md-icon md-svg-icon="\', escape=False)\nresponse.write(URL(\'static\', \'images/icons/bottle_white_24px.svg\'))\nresponse.write(\'"></md-icon>\\n                                <p>\', escape=False)\nresponse.write(T("Questions"))\nresponse.write(\'</p>\\n                            </md-list-item>\\n                            <md-list-item  class="md-actions content-color" ng-href="\', escape=False)\nresponse.write(URL(\'default\', \'outlet\'))\nresponse.write(\'">\\n                                <md-icon md-svg-icon="\', escape=False)\nresponse.write(URL(\'static\', \'images/icons/bottle_white_24px.svg\'))\nresponse.write(\'"></md-icon>\\n                                <p>\', escape=False)\nresponse.write(T("Outlet"))\nresponse.write(\'</p>\\n                            </md-list-item>\\n                        <md-subheader class="md-no-sticky body-color">\', escape=False)\nresponse.write(T(\'Information\'))\nresponse.write(\'</md-subheader>\\n                            <md-list-item ng-click="show_layout=\\\'deals_range_list\\\'" class="md-actions" ng-href="\', escape=False)\nresponse.write(URL(\'default\', \'about\'))\nresponse.write(\'">\\n                                <md-icon md-svg-icon="\', escape=False)\nresponse.write(URL(\'static\', \'images/icons/bottle_white_24px.svg\'))\nresponse.write(\'"></md-icon>\\n                                <p>\', escape=False)\nresponse.write(T("About"))\nresponse.write(\'</p>\\n                            </md-list-item>\\n                    </md-list>\\n                    <spand flex>&nbsp;</spand>\\n                </md-content>\\n            </md-sidenav>\\n            <md-content class="container body-content body-color" md-scroll-y flex>\\n                    <div flex>\\n                        \', escape=False)\nresponse.write(\'\\n<div layout="row">\\n<div flex>\\n    &nbsp;\\n</div>\\n<div flex-xs flex-gt-xs="35" layout="column">\\n    <md-card>\\n        <img ng-src="\', escape=False)\nresponse.write(URL(\'static\', \'images/coca-cola_strip_phone.png\'))\nresponse.write(\'" class="md-card-image" alt="Washed Out">\\n            <md-card-title>\\n                <md-card-title-text>\\n                    <span class="md-headline">\', escape=False)\nresponse.write(T(response.title or request.application))\nresponse.write(\'</span>\\n                    <span class="md-subhead">\', escape=False)\nresponse.write(T(\'Coca-Cola Pinya Beverages Myanmar Ltd.\'))\nresponse.write(\'</span>\\n                </md-card-title-text>\\n            </md-card-title>\\n            <md-divider></md-divider>\\n            <md-card-content >\\n                <div layout="column" layout-align="center center">\\n                    <h4>\', escape=False)\nresponse.write(T("Taste the feeling"))\nresponse.write(\'&#8482;</h4>\\n                </div>\\n            </md-card-content>\\n            <md-card-actions layout="row" layout-align="end center">\\n                <span>\', escape=False)\nresponse.write(T(\'Copyright\'))\nresponse.write(\' &#169; CCPBM \', escape=False)\nresponse.write(request.now.year)\nresponse.write(\'</span>\\n                <span flex>&nbsp;</span>\\n                <div layout="row" layout-align="start center">\\n                    <span>\', escape=False)\nresponse.write(T(\'Powered by\'))\nresponse.write(\'</span><md-button class="md-primary" ng-href="http://www.web2py.com/" target="_blank">Web2py</md-button>\\n                </div>\\n\\n            </md-card-actions>\\n    </md-card>\\n</div>\\n<div flex>\\n    &nbsp;\\n</div>\\n</div>\\n\', escape=False)\nresponse.write(\'\\n                    </div>\\n            </md-content>\\n                \', escape=False)\nresponse.write(\'\\n        </md-content>\\n        <!-- <div class="mdl-layout__drawer">\\n            <span class="mdl-layout-title">Menu</span>\\n            <nav class="mdl-navigation">\\n                <a class="mdl-navigation__link" href="\', escape=False)\nresponse.write(URL(\'default\', \'index\'))\nresponse.write(\'">Home</a>\\n                <a class="mdl-navigation__link" href="\', escape=False)\nresponse.write(URL(\'default\', \'brand\'))\nresponse.write(\'">Brand</a>\\n                <a class="mdl-navigation__link" href="\', escape=False)\nresponse.write(URL(\'default\', \'model\'))\nresponse.write(\'">Model</a>\\n                <a class="mdl-navigation__link" href="\', escape=False)\nresponse.write(URL(\'default\', \'about\'))\nresponse.write(\'">About</a>\\n            </nav>\\n        </div> -->\\n        <!-- <main class="mdl-layout__content">\\n            <div class="page-content"> -->\\n<!-- Main ========================================= -->\\n<!-- Begin page content -->\\n\\n    </md-content>\\n    \', escape=False)\nresponse.write(\'\\n<!-- this is default footer -->\\n    <!-- <footer class="footer" >\\n      <div class="container-fluid">\\n        <div class="copyright pull-left">\', escape=False)\nresponse.write(T(\'Copyright\'))\nresponse.write(\' &#169; CCPBM \', escape=False)\nresponse.write(request.now.year)\nresponse.write(\'</div>\\n          <div id="poweredBy" class="pull-right">\\n            \', escape=False)\nresponse.write(T(\'Powered by\'))\nresponse.write(\'\\n            <a href="http://www.web2py.com/">web2py</a>\\n          </div>\\n      </div>\\n    </footer> -->\\n    <div id="web2py-my-toast" class="mdl-js-snackbar mdl-snackbar">\\n        <div class="mdl-snackbar__text"></div>\\n        <button class="mdl-snackbar__action" type="button"></button>\\n    </div>\\n    \', escape=False)\nresponse.write(\'\\n    <!-- The javascript =============================== -->\\n    <script src="\', escape=False)\nresponse.write(URL(\'static\',\'js/bootstrap.min.js\'))\nresponse.write(\'"></script>\\n    <script src="\', escape=False)\nresponse.write(URL(\'static\',\'js/web2py-bootstrap3.js\'))\nresponse.write(\'"></script>\\n    <script src="\', escape=False)\nresponse.write(URL(\'static\',\'js/jquery.js\'))\nresponse.write(\'"></script>\\n    <script src="\', escape=False)\nresponse.write(URL(\'static\',\'js/jquery-2.1.4.min.js\'))\nresponse.write(\'"></script>\\n    <script src="\', escape=False)\nresponse.write(URL(\'static\',\'js/jquery.base64.js\'))\nresponse.write(\'"></script>\\n\\n    <script src="\', escape=False)\nresponse.write(URL(\'static\', \'js/angular.js\'))\nresponse.write(\'"></script>\\n    <script src="\', escape=False)\nresponse.write(URL(\'static\', \'js/material.min.js\'))\nresponse.write(\'"></script>\\n    <script src="\', escape=False)\nresponse.write(URL(\'static\', \'js/angular-material.js\'))\nresponse.write(\'"></script>\\n    <script src="\', escape=False)\nresponse.write(URL(\'static\', \'js/angular-aria.js\'))\nresponse.write(\'"></script>\\n    <script src="\', escape=False)\nresponse.write(URL(\'static\', \'js/angular-animate.js\'))\nresponse.write(\'"></script>\\n    <script src="\', escape=False)\nresponse.write(URL(\'static\', \'js/angular-messages.js\'))\nresponse.write(\'"></script>\\n    <script src="\', escape=False)\nresponse.write(URL(\'static\', \'js/script.js\'))\nresponse.write(\'"></script>\\n\\n    \', escape=False)\nresponse.write("\\n    <script>\\n        // var MyApp = angular.module(\'MyApp\', [\'ngMaterial\', \'ngMessages\']);\\n        // MyApp.controller(\'AppCtrl\', [\'$scope\', \'$mdDialog\', \'$http\', function($scope, $mdDialog, $http) {\\n        //\\n        // }]);\\n        (function() {\\n            \'use strict\';\\n            var snackbarContainer = document.querySelector(\'#web2py-my-toast\');\\n            var data = {message: \'", escape=False)\nresponse.write(response.flash or \'\')\nresponse.write("\'};\\n            var timeout_id = setTimeout(function () {\\n                snackbarContainer.MaterialSnackbar.showSnackbar(data);\\n            }, 1000);\\n        }());\\n    </script>\\n\\n  </body>\\n</html>\\n", escape=False)'
p7
sS'snapshot'
p8
(dp9
sS'traceback'
p10
S'Traceback (most recent call last):\n  File "/home/nyeinchan/web2py/gluon/restricted.py", line 227, in restricted\n    exec ccode in environment\n  File "/home/nyeinchan/web2py/applications/outletsurvey/views/default/index.html", line 74, in <module>\nAttributeError: \'translator\' object has no attribute \'request\'\n'
p11
s.