(dp1
S'output'
p2
S'missing "pass" in view'
p3
sS'layer'
p4
S'ParserContainer'
p5
sS'code'
p6
S'response.write(\'<!DOCTYPE html>\\n<html class="no-js" lang="\', escape=False)\nresponse.write(T.accepted_language or \'en\')\nresponse.write(\'">\\n    <head>\\n        <meta charset="utf-8">\\n        <meta http-equiv="X-UA-Compatible" content="IE=edge\', escape=False)\nresponse.write(not request.is_local and \',chrome=1\' or \'\')\nresponse.write(\'">\\n        <meta name="viewport" content="width=device-width, initial-scale=1.0">\\n\\n        <meta name="description" content="A front-end template that helps you build fast, modern mobile web apps.">\\n        <title>\', escape=False)\nresponse.write(T(response.title or request.application))\nresponse.write(\'</title>\\n        <meta name="application-name" content="\', escape=False)\nresponse.write(request.application)\nresponse.write(\'">\\n        <meta name="google-site-verification" content="">\\n        <meta name="mobile-web-app-capable" content="yes">\\n        <link rel="icon" sizes="192x192" href="\', escape=False)\nresponse.write(URL(\'static\',\'images/android-desktop.png\'))\nresponse.write(\'">\\n\\n        <!-- Add to homescreen for Safari on iOS -->\\n        <meta name="apple-mobile-web-app-capable" content="yes">\\n        <meta name="apple-mobile-web-app-status-bar-style" content="black">\\n        <meta name="apple-mobile-web-app-title" content="Material Design Lite">\\n        <link rel="apple-touch-icon-precomposed" href="\', escape=False)\nresponse.write(URL(\'static\',\'images/ios-desktop.png\'))\nresponse.write(\'">\\n<!-- include stylesheets -->\\n        <link rel="stylesheet" href="\', escape=False)\nresponse.write(URL(\'static\',\'css/bootstrap.min.css\'))\nresponse.write(\'"/>\\n        <link rel="stylesheet" href="\', escape=False)\nresponse.write(URL(\'static\',\'css/web2py-bootstrap3.css\'))\nresponse.write(\'"/>\\n        <link rel="stylesheet" href="\', escape=False)\nresponse.write(URL(\'static\', \'css/custom.css\'))\nresponse.write(\'"/>\\n        <link rel="stylesheet" href="\', escape=False)\nresponse.write(URL(\'static\', \'css/mdl-style.css\'))\nresponse.write(\'"/>\\n        <link rel="stylesheet" href="\', escape=False)\nresponse.write(URL(\'static\', \'css/style.css\'))\nresponse.write(\'"/>\\n        <link rel="stylesheet" href="\', escape=False)\nresponse.write(URL(\'static\', \'css/myansanspro.css\'))\nresponse.write(\'"/>\\n        <link rel="stylesheet" href="\', escape=False)\nresponse.write(URL(\'static\', \'css/material.min.css\'))\nresponse.write(\'"/>\\n        <link rel="stylesheet" href="\', escape=False)\nresponse.write(URL(\'static\', \'css/material.css\'))\nresponse.write(\'"/>\\n        <link rel="stylesheet" href="\', escape=False)\nresponse.write(URL(\'static\', \'css/angular-material.css\'))\nresponse.write(\'"/>\\n        <link rel="stylesheet" href="\', escape=False)\nresponse.write(URL(\'static\', \'css/materialicons.css\'))\nresponse.write(\'"/>\\n        <link rel="shortcut icon" href="\', escape=False)\nresponse.write(URL(\'static\',\'images/favicon.ico\'))\nresponse.write(\'" type="image/x-icon"/>\\n        <link rel="apple-touch-icon" href="\', escape=False)\nresponse.write(URL(\'static\',\'images/favicon.png\'))\nresponse.write(\'"/>\\n\\n        <script src="\', escape=False)\nresponse.write(URL(\'static\',\'js/modernizr-2.8.3.min.js\'))\nresponse.write(\'"></script>\\n            \', escape=False)\nresponse.write(\'<script type="text/javascript"><!--\\n    // These variables are used by the web2py_ajax_init function in web2py_ajax.js (which is loaded below).\\n    var w2p_ajax_confirm_message = "\', escape=False)\nresponse.write(T(\'Are you sure you want to delete this object?\'))\nresponse.write(\'";\\n    var w2p_ajax_disable_with_message = "\', escape=False)\nresponse.write(T(\'Working...\'))\nresponse.write(\'";\\n    var w2p_ajax_date_format = "\', escape=False)\nresponse.write(T(\'%Y-%m-%d\'))\nresponse.write(\'";\\n    var w2p_ajax_datetime_format = "\', escape=False)\nresponse.write(T(\'%Y-%m-%d %H:%M:%S\'))\nresponse.write(\'";\\n    var ajax_error_500 = \\\'\', escape=False)\nresponse.write(T.M(\'An error occured, please [[reload %s]] the page\') % URL(args=request.args, vars=request.get_vars))\nresponse.write("\'\\n    //--></script>\\n", escape=False)\nresponse.files.insert(0,URL(\'static\',\'js/jquery.js\'))\nresponse.files.insert(1,URL(\'static\',\'css/calendar.css\'))\nresponse.files.insert(2,URL(\'static\',\'js/calendar.js\'))\nresponse.files.insert(3,URL(\'static\',\'js/web2py.js\'))\nresponse.include_meta()\nresponse.include_files()\nresponse.write(\'\\n\', escape=False)\nresponse.write(\'\\n    </head>\\n    <body ng-app="MyApp" layout="column" ng-cloak="" class="body-color">\\n<!-- Always shows a header, even in smaller screens. -->\\n\\n<!-- Masthead ===================================== -->\\n        \', escape=False)\nresponse.write(\'\\n        <md-content flex layout="column" layout-fill ng-controller="AppCtrl">\\n            <md-toolbar class="md-toolbar-tools md-whiteframe-4dp " layout="row" style="background-color:#F44336;">\\n                <md-button class="md-icon-button" ng-show="true" aria-label="menu" ng-click="toggleLeft()">\\n                  <md-icon md-svg-icon="\', escape=False)\nresponse.write(URL(\'static\', \'images/icons/menu_white_24px.svg\'))\nresponse.write(\'"></md-icon>\\n                </md-button>\\n                <label class="md-title" layout-padding>\', escape=False)\nresponse.write(T(response.title or request.application))\nresponse.write(\'</label>\\n                <span flex>&nbsp;</span>\\n                <div layout="row" layout-align="center center">\\n                    <div class="collapse navbar-collapse navbar-ex1-collapse">\\n                        <ul class="nav navbar-nav navbar-right">\\n                            \', escape=False)\nresponse.write(auth.navbar(mode=\'dropdown\') or \'\')\nresponse.write(\'\\n                        </ul>\\n                        \', escape=False)\nif response.menu:\n    response.write(\'\\n                            \', escape=False)\n    response.write(MENU(response.menu, _class=\'nav navbar-nav\',li_class=\'dropdown\',ul_class=\'dropdown-menu\'))\n    response.write(\'\\n                        \', escape=False)\n    pass\nresponse.write(\'\\n                    </div>\\n                    \', escape=False)\nif hasattr(T,\'get_possible_languages_info\'):\n    response.write(\'\\n                    <md-input-container class="" style="background-color:#F44336;" >\\n                        <select name="adminlanguage" onchange="var date = new       Date();cookieDate=date.setTime(date.getTime()+(100*24*60*60*1000));document.cookie=\\\'adminLanguage=\\\'+this.options[this.selectedIndex].id+\\\'; expires=\\\'+cookieDate+\\\'; path=/\\\'; window.location.pathname= \\\'\', escape=False)\n    response.write(request.application)\n    response.write(\'/\\\'+ this.options[this.selectedIndex].value;"\\n                        class="btn btn-default">\\n                            \', escape=False)\n    for langinfo in sorted([(code,info[1]) for code,info in T.get_possible_languages_info().iteritems() if (code != \'default\') and (code in [\'my-mm\', \'en-us\'])   ]):\n        response.write(\'\\n                                <option \', escape=False)\n        response.write(T.accepted_language==langinfo[0] and \'selected\' or \'\')\n        response.write(\' \', escape=False)\n        response.write(\'id=\'+langinfo[0])\n        response.write(\' \', escape=False)\n        response.write(\'value=\'+langinfo[0])\n        response.write(\' >\', escape=False)\n        response.write(langinfo[1])\n        response.write(\'</option>\\n                            \', escape=False)\n        pass\n    response.write(\'\\n                        </select>\\n                    </md-input-container>\\n                    \', escape=False)\n    pass\nresponse.write(\'\\n                </div>\\n              </md-toolbar>\\n        \', escape=False)\nresponse.write(\'\\n        \', escape=False)\nresponse.write(\'\\n        <md-content flex layout="row"  class="content-color">\\n            <md-sidenav flex="20" class="md-sidenav-left md-whiteframe-z2"\\n                md-component-id="left">\\n                <md-content flex layout="column" class="content-color">\\n                    <md-list>\\n                        <md-list-item  class="md-actions content-color" ng-href="\', escape=False)\nresponse.write(URL(\'default\', \'index\'))\nresponse.write(\'">\\n                            <md-icon md-svg-icon="\', escape=False)\nresponse.write(URL(\'static\', \'images/icons/bottle_white_24px.svg\'))\nresponse.write(\'"></md-icon>\\n                            <p>\', escape=False)\nresponse.write(T("Home"))\nresponse.write(\'</p>\\n                        </md-list-item>\\n                        <md-list-item  class="md-actions content-color" ng-href="\', escape=False)\nresponse.write(URL(\'default\', \'getGPS\'))\nresponse.write(\'">\\n                            <md-icon md-svg-icon="\', escape=False)\nresponse.write(URL(\'static\', \'images/icons/bottle_white_24px.svg\'))\nresponse.write(\'"></md-icon>\\n                            <p>\', escape=False)\nresponse.write(T("Location"))\nresponse.write(\'</p>\\n                        </md-list-item>\\n                        <md-list-item   class="md-actions content-color" ng-href="\', escape=False)\nresponse.write(URL(\'default\', \'survey\'))\nresponse.write(\'">\\n                            <md-icon md-svg-icon="\', escape=False)\nresponse.write(URL(\'static\', \'images/icons/bottle_white_24px.svg\'))\nresponse.write(\'"></md-icon>\\n                            <p>\', escape=False)\nresponse.write(T("Survey"))\nresponse.write(\'</p>\\n                        </md-list-item>\\n                        <md-subheader class="md-no-sticky body-color">\', escape=False)\nresponse.write(T(\'Setting\'))\nresponse.write(\'</md-subheader>\\n                            <md-list-item  class="md-actions content-color" ng-href="\', escape=False)\nresponse.write(URL(\'default\', \'question\'))\nresponse.write(\'">\\n                                <md-icon md-svg-icon="\', escape=False)\nresponse.write(URL(\'static\', \'images/icons/bottle_white_24px.svg\'))\nresponse.write(\'"></md-icon>\\n                                <p>\', escape=False)\nresponse.write(T("Questions"))\nresponse.write(\'</p>\\n                            </md-list-item>\\n                            <md-list-item  class="md-actions content-color" ng-href="\', escape=False)\nresponse.write(URL(\'default\', \'outlet\'))\nresponse.write(\'">\\n                                <md-icon md-svg-icon="\', escape=False)\nresponse.write(URL(\'static\', \'images/icons/bottle_white_24px.svg\'))\nresponse.write(\'"></md-icon>\\n                                <p>\', escape=False)\nresponse.write(T("Outlet Type"))\nresponse.write(\'</p>\\n                            </md-list-item>\\n                        <md-subheader class="md-no-sticky body-color">\', escape=False)\nresponse.write(T(\'Information\'))\nresponse.write(\'</md-subheader>\\n                            <md-list-item ng-click="show_layout=\\\'deals_range_list\\\'" class="md-actions" ng-href="\', escape=False)\nresponse.write(URL(\'default\', \'about\'))\nresponse.write(\'">\\n                                <md-icon md-svg-icon="\', escape=False)\nresponse.write(URL(\'static\', \'images/icons/bottle_white_24px.svg\'))\nresponse.write(\'"></md-icon>\\n                                <p>\', escape=False)\nresponse.write(T("About"))\nresponse.write(\'</p>\\n                            </md-list-item>\\n                    </md-list>\\n                    <spand flex>&nbsp;</spand>\\n                </md-content>\\n            </md-sidenav>\\n            <md-content class="container body-content body-color" md-scroll-y flex>\\n                    <div flex>\\n                        \', escape=False)\nresponse.write(\'\\n\\n\\n<div flex>\\n<md-content flex layout-fill  layout="column" ng-cloak="" class="body-color">\\n    <div flex style="margin:10px;" layout="column">\\n        <md-card name="productDetail">\\n          <!-- <md-toolbar class="md-warn"> -->\\n            <md-card-title>\\n              <md-card-title-text>\\n                <span class="md-title" flex>\', escape=False)\nresponse.write(response.moduleTitle)\nresponse.write(\'</span>\\n              </md-card-title-text>\\n            </md-card-title>\\n          <!-- </md-toolbar> -->\\n          <!-- <md-dialog-content> -->\\n            <md-card-content class="md-dialog-content" layout="column" flex>\\n                    <!-- <div>\\n                        \', escape=False)\nresponse.write(form.custom.begin)\nresponse.write(\'\\n                        \', escape=False)\nresponse.write(form.custom.widget.search)\nresponse.write(form.custom.submit)\nresponse.write(\'\\n                        \', escape=False)\nresponse.write(form.custom.end)\nresponse.write(\'\\n                    </div>\\n                    \', escape=False)\nif longitude or latitude:\n    response.write(\'\\n                    <p>latitude, longtitude: \', escape=False)\n    response.write(latitude)\n    response.write(\',\', escape=False)\n    response.write(longitude)\n    response.write(\'</p> -->\\n                    <div id="map" style="height:400px;width:800px"></div>\\n            </md-card-content>\\n          <!-- </md-dialog-content> -->\\n        </md-card>\\n    </div>\\n</md-content>\\n</div>\\n<script>\\n$(document).ready(function(){\\n  map = new GMaps({\\n    div: \\\'#map\\\',\\n    lat: \', escape=False)\n    response.write(latitude)\n    response.write(\',\\n    lng: \', escape=False)\n    response.write(longitude)\n    response.write(\'\\n  });\\n   map.addMarker({\\n    lat: \', escape=False)\n    response.write(latitude)\n    response.write(\',\\n    lng: \', escape=False)\n    response.write(longitude)\n    response.write(",\\n    title: \'Here!\',\\n    infoWindow: {\\n        content: \'<p>", escape=False)\n    response.write(request.vars.search)\n    response.write(\'</p>\\\'\\n    }\\n  });\\n});\\n\\nvar map;\\nfunction initMap() {\\n    map = new google.maps.Map(document.getElementById(\\\'map\\\'), {\\n        center: {lat: 16.8583904, lng: 96.0677832},\\n        zoom: 8\\n    });\\n}\\n</script>\\n<script src="http://maps.google.com/maps/api/js?key=AIzaSyB6t9AbbpZkB_03IDrjAua2jrQk3-TQgeE&callback=initMap" async defer></script>\\n<script src="\', escape=False)\n    response.write(URL(\'static\',\'js/gmaps.js\'))\n    response.write(\'"></script>\\n\', escape=False)\n    response.write(\'\\n                    </div>\\n            </md-content>\\n                \', escape=False)\n    response.write(\'\\n        </md-content>\\n        <!-- <div class="mdl-layout__drawer">\\n            <span class="mdl-layout-title">Menu</span>\\n            <nav class="mdl-navigation">\\n                <a class="mdl-navigation__link" href="\', escape=False)\n    response.write(URL(\'default\', \'index\'))\n    response.write(\'">Home</a>\\n                <a class="mdl-navigation__link" href="\', escape=False)\n    response.write(URL(\'default\', \'brand\'))\n    response.write(\'">Brand</a>\\n                <a class="mdl-navigation__link" href="\', escape=False)\n    response.write(URL(\'default\', \'model\'))\n    response.write(\'">Model</a>\\n                <a class="mdl-navigation__link" href="\', escape=False)\n    response.write(URL(\'default\', \'about\'))\n    response.write(\'">About</a>\\n            </nav>\\n        </div> -->\\n        <!-- <main class="mdl-layout__content">\\n            <div class="page-content"> -->\\n<!-- Main ========================================= -->\\n<!-- Begin page content -->\\n\\n    </md-content>\\n    \', escape=False)\n    response.write(\'\\n<!-- this is default footer -->\\n    <!-- <footer class="footer" >\\n      <div class="container-fluid">\\n        <div class="copyright pull-left">\', escape=False)\n    response.write(T(\'Copyright\'))\n    response.write(\' &#169; CCPBM \', escape=False)\n    response.write(request.now.year)\n    response.write(\'</div>\\n          <div id="poweredBy" class="pull-right">\\n            \', escape=False)\n    response.write(T(\'Powered by\'))\n    response.write(\'\\n            <a href="http://www.web2py.com/">web2py</a>\\n          </div>\\n      </div>\\n    </footer> -->\\n    <div id="web2py-my-toast" class="mdl-js-snackbar mdl-snackbar">\\n        <div class="mdl-snackbar__text"></div>\\n        <button class="mdl-snackbar__action" type="button"></button>\\n    </div>\\n    \', escape=False)\n    response.write(\'\\n    <!-- The javascript =============================== -->\\n    <script src="\', escape=False)\n    response.write(URL(\'static\',\'js/bootstrap.min.js\'))\n    response.write(\'"></script>\\n    <script src="\', escape=False)\n    response.write(URL(\'static\',\'js/web2py-bootstrap3.js\'))\n    response.write(\'"></script>\\n    <script src="\', escape=False)\n    response.write(URL(\'static\',\'js/jquery.js\'))\n    response.write(\'"></script>\\n    <script src="\', escape=False)\n    response.write(URL(\'static\',\'js/jquery-2.1.4.min.js\'))\n    response.write(\'"></script>\\n    <script src="\', escape=False)\n    response.write(URL(\'static\',\'js/jquery.base64.js\'))\n    response.write(\'"></script>\\n\\n    <script src="\', escape=False)\n    response.write(URL(\'static\', \'js/angular.js\'))\n    response.write(\'"></script>\\n    <script src="\', escape=False)\n    response.write(URL(\'static\', \'js/material.min.js\'))\n    response.write(\'"></script>\\n    <script src="\', escape=False)\n    response.write(URL(\'static\', \'js/angular-material.js\'))\n    response.write(\'"></script>\\n    <script src="\', escape=False)\n    response.write(URL(\'static\', \'js/angular-aria.js\'))\n    response.write(\'"></script>\\n    <script src="\', escape=False)\n    response.write(URL(\'static\', \'js/angular-animate.js\'))\n    response.write(\'"></script>\\n    <script src="\', escape=False)\n    response.write(URL(\'static\', \'js/angular-messages.js\'))\n    response.write(\'"></script>\\n    <script src="\', escape=False)\n    response.write(URL(\'static\', \'js/script.js\'))\n    response.write(\'"></script>\\n\\n    \', escape=False)\n    response.write("\\n    <script>\\n        // var MyApp = angular.module(\'MyApp\', [\'ngMaterial\', \'ngMessages\']);\\n        // MyApp.controller(\'AppCtrl\', [\'$scope\', \'$mdDialog\', \'$http\', function($scope, $mdDialog, $http) {\\n        //\\n        // }]);\\n        (function() {\\n            \'use strict\';\\n            var snackbarContainer = document.querySelector(\'#web2py-my-toast\');\\n            var data = {message: \'", escape=False)\n    response.write(response.flash or \'\')\n    response.write("\'};\\n            var timeout_id = setTimeout(function () {\\n                snackbarContainer.MaterialSnackbar.showSnackbar(data);\\n            }, 1000);\\n        }());\\n    </script>\\n\\n  </body>\\n</html>\\n", escape=False)'
p7
sS'snapshot'
p8
(dp9
S'exception'
p10
(dp11
S'__module__'
p12
S"'gluon.rocket'"
p13
sS'__getslice__'
p14
S"<method-wrapper '__getslice__' of SocketTimeout object>"
p15
sS'__str__'
p16
S"<method-wrapper '__str__' of SocketTimeout object>"
p17
sS'__reduce__'
p18
S'<built-in method __reduce__ of SocketTimeout object>'
p19
sS'__dict__'
p20
S'{}'
p21
sS'__sizeof__'
p22
S'<built-in method __sizeof__ of SocketTimeout object>'
p23
sS'__weakref__'
p24
S'None'
p25
sS'__init__'
p26
S"<method-wrapper '__init__' of SocketTimeout object>"
p27
sS'__setattr__'
p28
S"<method-wrapper '__setattr__' of SocketTimeout object>"
p29
sS'__reduce_ex__'
p30
S'<built-in method __reduce_ex__ of SocketTimeout object>'
p31
sS'__new__'
p32
S'<built-in method __new__ of type object>'
p33
sS'__format__'
p34
S'<built-in method __format__ of SocketTimeout object>'
p35
sS'__class__'
p36
S"<class 'gluon.rocket.SocketTimeout'>"
p37
sS'__doc__'
p38
S"'Exception for when a socket times out between requests.'"
p39
sS'__getitem__'
p40
S"<method-wrapper '__getitem__' of SocketTimeout object>"
p41
sS'__setstate__'
p42
S'<built-in method __setstate__ of SocketTimeout object>'
p43
sS'__getattribute__'
p44
S"<method-wrapper '__getattribute__' of SocketTimeout object>"
p45
sS'args'
p46
S"('Socket timed out before request.',)"
p47
sS'__subclasshook__'
p48
S'<built-in method __subclasshook__ of type object>'
p49
sS'__unicode__'
p50
S'<built-in method __unicode__ of SocketTimeout object>'
p51
sS'__delattr__'
p52
S"<method-wrapper '__delattr__' of SocketTimeout object>"
p53
sS'__repr__'
p54
S"<method-wrapper '__repr__' of SocketTimeout object>"
p55
sS'__hash__'
p56
S"<method-wrapper '__hash__' of SocketTimeout object>"
p57
ssS'evalue'
p58
S'Socket timed out before request.'
p59
sS'frames'
p60
(lp61
(dp62
S'file'
p63
S'/home/nyeinchan/web2py/gluon/rocket.py'
p64
sS'dump'
p65
(dp66
S'self'
p67
S'<WSGIWorker(Thread-5, started daemon 139822803633920)>'
p68
sS'conn'
p69
S'<gluon.rocket.Connection object>'
p70
sS'self.run_app'
p71
S'<bound method WSGIWorker.run_app of <WSGIWorker(Thread-5, started daemon 139822803633920)>>'
p72
ssS'lnum'
p73
I1337
sS'lines'
p74
(dp75
I1332
S'            # Enter connection serve loop'
p76
sI1333
S'            while True:'
p77
sI1334
S'                if __debug__:'
p78
sI1335
S"                    self.err_log.debug('Serving a request')"
p79
sI1336
S'                try:'
p80
sI1337
S'                    self.run_app(conn)'
p81
sI1338
S'                except:'
p82
sI1339
S'                    exc = sys.exc_info()'
p83
sI1340
S'                    handled = self._handleError(*exc)'
p84
sI1341
S'                    if handled:'
p85
ssS'call'
p86
S'(self=<WSGIWorker(Thread-5, started daemon 139822803633920)>)'
p87
sS'func'
p88
S'run'
p89
sa(dp90
g63
S'/home/nyeinchan/web2py/gluon/rocket.py'
p91
sg65
(dp92
S'self'
p93
S'<WSGIWorker(Thread-5, started daemon 139822803633920)>'
p94
sS'self.environ'
p95
S"{'HTTP_ACCEPT': 'text/html,application/xhtml+xml,application/xml;q=0.9,image/webp,*/*;q=0.8', 'HTTP_ACCEPT_ENCODING': 'gzip, deflate, sdch', 'HTTP_ACCEPT_LANGUAGE': 'en-US,en;q=0.8', 'HTTP_CACHE_CONTROL': 'max-age=0', 'HTTP_CONNECTION': 'keep-alive', 'HTTP_COOKIE': 'session_id_monitor=127.0.0.1-463bcf45-d333-40c8-...ey=127.0.0.1-e5f01791-52db-4443-84d7-612d427381ba', 'HTTP_HOST': 'localhost:8000', 'HTTP_UPGRADE_INSECURE_REQUESTS': '1', 'HTTP_USER_AGENT': 'Mozilla/5.0 (X11; Linux x86_64) AppleWebKit/537....L, like Gecko) Chrome/53.0.2785.143 Safari/537.36', 'PATH_INFO': '/outletsurvey/getGPS', ...}"
p96
sS'sock_file'
p97
S'<socket._fileobject object>'
p98
sS'environ'
p99
S'undefined'
p100
sS'self.build_environ'
p101
S'<bound method WSGIWorker.build_environ of <WSGIWorker(Thread-5, started daemon 139822803633920)>>'
p102
sS'conn'
p103
S'<gluon.rocket.Connection object>'
p104
ssg73
I1830
sg74
(dp105
I1825
S'        else:'
p106
sI1826
S'            sock_file = conn.makefile(BUF_SIZE)'
p107
sI1827
S''
sI1828
S'        try:'
p108
sI1829
S'            # Read the headers and build our WSGI environment'
p109
sI1830
S'            self.environ = environ = self.build_environ(sock_file, conn)'
p110
sI1831
S''
sI1832
S'            # Handle 100 Continue'
p111
sI1833
S"            if environ.get('HTTP_EXPECT', '') == '100-continue':"
p112
sI1834
S"                res = environ['SERVER_PROTOCOL'] + ' 100 Continue\\r\\n\\r\\n'"
p113
ssg86
S'(self=<WSGIWorker(Thread-5, started daemon 139822803633920)>, conn=<gluon.rocket.Connection object>)'
p114
sg88
S'run_app'
p115
sa(dp116
g63
S'/home/nyeinchan/web2py/gluon/rocket.py'
p117
sg65
(dp118
S'sock_file'
p119
S'<socket._fileobject object>'
p120
sS'self.read_request_line'
p121
S'<bound method WSGIWorker.read_request_line of <W...orker(Thread-5, started daemon 139822803633920)>>'
p122
sS'self'
p123
S'<WSGIWorker(Thread-5, started daemon 139822803633920)>'
p124
sS'request'
p125
g100
ssg73
I1650
sg74
(dp126
I1645
S'                                      "wsgiorg.futures": executor.futures})'
p127
sI1646
S''
sI1647
S'    def build_environ(self, sock_file, conn):'
p128
sI1648
S'        """ Build the execution environment. """'
p129
sI1649
S'        # Grab the request line'
p130
sI1650
S'        request = self.read_request_line(sock_file)'
p131
sI1651
S''
sI1652
S'        # Copy the Base Environment'
p132
sI1653
S'        environ = self.base_environ.copy()'
p133
sI1654
S''
ssg86
S'(self=<WSGIWorker(Thread-5, started daemon 139822803633920)>, sock_file=<socket._fileobject object>, conn=<gluon.rocket.Connection object>)'
p134
sg88
S'build_environ'
p135
sa(dp136
g63
S'/home/nyeinchan/web2py/gluon/rocket.py'
p137
sg65
(dp138
S'global SocketTimeout'
p139
S"<class 'gluon.rocket.SocketTimeout'>"
p140
ssg73
I1401
sg74
(dp141
I1396
S''
sI1397
S'                d = sock_file.readline()'
p142
sI1398
S'                if PY3K:'
p143
sI1399
S"                    d = d.decode('ISO-8859-1')"
p144
sI1400
S'        except socket.timeout:'
p145
sI1401
S"            raise SocketTimeout('Socket timed out before request.')"
p146
sI1402
S'        except TypeError:'
p147
sI1403
S'            raise SocketClosed('
p148
sI1404
S"                'SSL bug caused closure of socket.  See '"
p149
sI1405
S'                \'"https://groups.google.com/d/topic/web2py/P_Gw0JxWzCs".\')'
p150
ssg86
S'(self=<WSGIWorker(Thread-5, started daemon 139822803633920)>, sock_file=<socket._fileobject object>)'
p151
sg88
S'read_request_line'
p152
sasS'pyver'
p153
S'Python 2.7.12: /usr/bin/python (prefix: /usr)'
p154
sS'etype'
p155
S"<class 'gluon.rocket.SocketTimeout'>"
p156
sS'date'
p157
S'Wed Oct  5 22:28:44 2016'
p158
sS'locals'
p159
(dp160
S'sock_file'
p161
S'<socket._fileobject object>'
p162
sS'self'
p163
S'<WSGIWorker(Thread-5, started daemon 139822803633920)>'
p164
sssS'traceback'
p165
S'Traceback (most recent call last):\n  File "/home/nyeinchan/web2py/gluon/rocket.py", line 1337, in run\n    self.run_app(conn)\n  File "/home/nyeinchan/web2py/gluon/rocket.py", line 1830, in run_app\n    self.environ = environ = self.build_environ(sock_file, conn)\n  File "/home/nyeinchan/web2py/gluon/rocket.py", line 1650, in build_environ\n    request = self.read_request_line(sock_file)\n  File "/home/nyeinchan/web2py/gluon/rocket.py", line 1401, in read_request_line\n    raise SocketTimeout(\'Socket timed out before request.\')\nSocketTimeout: Socket timed out before request.\n'
p166
s.